; Function Attrs: mustprogress nofree norecurse nosync nounwind willreturn memory(argmem: read) uwtable
define dso_local noundef zeroext i1 @_ZNK5clang4ento3mpi21MPIFunctionClassifier11isBcastTypeEPKNS_14IdentifierInfoE(ptr noundef nonnull readonly align 8 captures(none) dereferenceable(1016) %0, ptr noundef readnone %1) local_unnamed_addr #1 align 2 {
  %3 = getelementptr inbounds nuw i8, ptr %0, i64 912
  %4 = load ptr, ptr %3, align 8
  %5 = icmp eq ptr %1, %4
  %6 = getelementptr inbounds nuw i8, ptr %0, i64 920
  %7 = load ptr, ptr %6, align 8
  %8 = icmp eq ptr %1, %7
  %9 = select i1 %5, i1 true, i1 %8
  ret i1 %9
}